; ModuleID = '12/65.c'
source_filename = "12/65.c"
target datalayout = "e-m:e-p270:32:32-p271:32:32-p272:64:64-i64:64-f80:128-n8:16:32:64-S128"
target triple = "x86_64-pc-linux-gnu"

@.str = private unnamed_addr constant [3 x i8] c"%d\00", align 1
@.str.1 = private unnamed_addr constant [4 x i8] c"%d\0A\00", align 1

; Function Attrs: noinline nounwind uwtable
define dso_local i32 @main() #0 {
  %1 = alloca i32, align 4
  %2 = alloca [15 x i32], align 16
  %3 = alloca i32, align 4
  %4 = alloca i32, align 4
  %5 = alloca i32, align 4
  %6 = alloca i32, align 4
  %7 = alloca i32, align 4
  %8 = alloca i32, align 4
  store i32 0, i32* %1, align 4
  store i32 0, i32* %5, align 4
  br label %9

9:                                                ; preds = %62, %0
  store i32 0, i32* %4, align 4
  store i32 0, i32* %6, align 4
  br label %10

10:                                               ; preds = %24, %9
  %11 = call i32 (i8*, ...) @__isoc99_scanf(i8* getelementptr inbounds ([3 x i8], [3 x i8]* @.str, i64 0, i64 0), i32* %3)
  %12 = load i32, i32* %3, align 4
  %13 = icmp eq i32 %12, 0
  br i1 %13, label %14, label %15

14:                                               ; preds = %10
  br label %27

15:                                               ; preds = %10
  %16 = load i32, i32* %3, align 4
  %17 = icmp eq i32 %16, -1
  br i1 %17, label %18, label %19

18:                                               ; preds = %15
  ret i32 0

19:                                               ; preds = %15
  %20 = load i32, i32* %3, align 4
  %21 = load i32, i32* %6, align 4
  %22 = sext i32 %21 to i64
  %23 = getelementptr inbounds [15 x i32], [15 x i32]* %2, i64 0, i64 %22
  store i32 %20, i32* %23, align 4
  br label %24

24:                                               ; preds = %19
  %25 = load i32, i32* %6, align 4
  %26 = add nsw i32 %25, 1
  store i32 %26, i32* %6, align 4
  br label %10

27:                                               ; preds = %14
  store i32 0, i32* %7, align 4
  br label %28

28:                                               ; preds = %56, %27
  %29 = load i32, i32* %7, align 4
  %30 = load i32, i32* %6, align 4
  %31 = icmp slt i32 %29, %30
  br i1 %31, label %32, label %59

32:                                               ; preds = %28
  store i32 0, i32* %8, align 4
  br label %33

33:                                               ; preds = %52, %32
  %34 = load i32, i32* %8, align 4
  %35 = load i32, i32* %6, align 4
  %36 = icmp slt i32 %34, %35
  br i1 %36, label %37, label %55

37:                                               ; preds = %33
  %38 = load i32, i32* %7, align 4
  %39 = sext i32 %38 to i64
  %40 = getelementptr inbounds [15 x i32], [15 x i32]* %2, i64 0, i64 %39
  %41 = load i32, i32* %40, align 4
  %42 = load i32, i32* %8, align 4
  %43 = sext i32 %42 to i64
  %44 = getelementptr inbounds [15 x i32], [15 x i32]* %2, i64 0, i64 %43
  %45 = load i32, i32* %44, align 4
  %46 = mul nsw i32 2, %45
  %47 = icmp eq i32 %41, %46
  br i1 %47, label %48, label %51

48:                                               ; preds = %37
  %49 = load i32, i32* %4, align 4
  %50 = add nsw i32 %49, 1
  store i32 %50, i32* %4, align 4
  br label %51

51:                                               ; preds = %48, %37
  br label %52

52:                                               ; preds = %51
  %53 = load i32, i32* %8, align 4
  %54 = add nsw i32 %53, 1
  store i32 %54, i32* %8, align 4
  br label %33

55:                                               ; preds = %33
  br label %56

56:                                               ; preds = %55
  %57 = load i32, i32* %7, align 4
  %58 = add nsw i32 %57, 1
  store i32 %58, i32* %7, align 4
  br label %28

59:                                               ; preds = %28
  %60 = load i32, i32* %4, align 4
  %61 = call i32 (i8*, ...) @printf(i8* getelementptr inbounds ([4 x i8], [4 x i8]* @.str.1, i64 0, i64 0), i32 %60)
  br label %62

62:                                               ; preds = %59
  %63 = load i32, i32* %5, align 4
  %64 = add nsw i32 %63, 1
  store i32 %64, i32* %5, align 4
  br label %9
}

declare dso_local i32 @__isoc99_scanf(i8*, ...) #1

declare dso_local i32 @printf(i8*, ...) #1


!llvm.module.flags = !{!0}
!llvm.ident = !{!1}

!0 = !{i32 1, !"wchar_size", i32 4}
!1 = !{!"clang version 10.0.0-4ubuntu1 "}
